target datalayout = "e-m:e-p270:32:32-p271:32:32-p272:64:64-i64:64-i128:128-f80:128-n8:16:32:64-S128"
target triple = "x86_64-pc-linux-gnu"

%struct.cpool = type { %struct.Curl_hash, i64, i64, i64, %struct.curltime, %struct.Curl_llist, ptr, ptr, ptr, ptr, i8 }
%struct.Curl_hash = type { ptr, ptr, ptr, ptr, i64, i64 }
%struct.curltime = type { i64, i32 }
%struct.Curl_llist = type { ptr, ptr, ptr, i64 }
%struct.Curl_easy = type { i32, i64, i64, ptr, %struct.Curl_llist_node, %struct.Curl_llist_node, i32, i32, %struct.Curl_message, %struct.easy_pollset, %struct.Names, ptr, ptr, ptr, ptr, %struct.SingleRequest, %struct.UserDefined, ptr, ptr, ptr, %struct.Progress, %struct.UrlState, ptr, %struct.PureInfo, %struct.curl_tlssessioninfo }
%struct.Curl_llist_node = type { ptr, ptr, ptr, ptr }
%struct.Curl_message = type { %struct.Curl_llist_node, %struct.CURLMsg }
%struct.CURLMsg = type { i32, ptr, %union.anon }
%union.anon = type { ptr }
%struct.easy_pollset = type { [5 x i32], i32, [5 x i8] }
%struct.Names = type { ptr, i32 }
%struct.SingleRequest = type <{ i64, i64, i64, i64, %struct.curltime, i32, i32, i32, i32, i64, i32, i32, i8, i8, [2 x i8], i32, ptr, ptr, %struct.bufq, i64, i64, ptr, ptr, %union.anon.0, ptr, i8, i32, [3 x i8] }>
%struct.bufq = type { ptr, ptr, ptr, ptr, i64, i64, i64, i32 }
%union.anon.0 = type { ptr }
%struct.UserDefined = type <{ ptr, ptr, ptr, ptr, ptr, ptr, i64, i64, i64, ptr, ptr, i64, ptr, ptr, ptr, ptr, ptr, ptr, ptr, ptr, ptr, ptr, ptr, ptr, ptr, ptr, ptr, ptr, ptr, ptr, ptr, ptr, ptr, ptr, ptr, i64, i64, i64, i64, i64, i64, i64, i64, i64, ptr, ptr, %struct.curl_mimepart, ptr, ptr, ptr, i64, %struct.ssl_config_data, %struct.ssl_config_data, ptr, i16, i8, i8, %struct.ssl_general_config, i32, i32, i32, [4 x i8], ptr, ptr, i64, i32, i8, i8, i8, i8, ptr, ptr, ptr, i32, [4 x i8], [74 x ptr], [8 x ptr], i32, i32, i32, [4 x i8], ptr, i32, [4 x i8], ptr, ptr, ptr, ptr, ptr, i32, i32, i32, i32, i32, i32, i32, i32, i64, ptr, ptr, i64, ptr, i64, ptr, ptr, ptr, ptr, i32, i16, i16, i16, i8, i8, i8, i8, i8, i8, i8, i8, i64, [6 x i8] }>
%struct.curl_mimepart = type { ptr, ptr, i32, i32, ptr, ptr, ptr, ptr, ptr, ptr, ptr, ptr, ptr, ptr, ptr, i64, %struct.mime_state, ptr, %struct.mime_encoder_state, i64 }
%struct.mime_state = type { i32, ptr, i64 }
%struct.mime_encoder_state = type { i64, i64, i64, [256 x i8] }
%struct.ssl_config_data = type { %struct.ssl_primary_config, i64, ptr, ptr, ptr, ptr, ptr, ptr, ptr, i16 }
%struct.ssl_primary_config = type { ptr, ptr, ptr, ptr, ptr, ptr, ptr, ptr, ptr, ptr, ptr, ptr, ptr, ptr, i8, i32, i8, i8 }
%struct.ssl_general_config = type { i32 }
%struct.Progress = type { i64, %struct.pgrs_dir, %struct.pgrs_dir, i64, i64, i32, i32, i64, i64, i64, i64, i64, i64, i64, i64, i64, %struct.curltime, %struct.curltime, %struct.curltime, %struct.curltime, %struct.curltime, [6 x i64], [6 x %struct.curltime], i32, i8 }
%struct.pgrs_dir = type { i64, i64, i64, %struct.pgrs_measure }
%struct.pgrs_measure = type { %struct.curltime, i64 }
%struct.UrlState = type { %struct.curltime, i64, i64, %struct.dynbuf, ptr, i64, ptr, i32, i32, i32, ptr, i32, i64, i32, ptr, %struct.digestdata, %struct.digestdata, %struct.auth, %struct.auth, %struct.Curl_async, ptr, i8, %struct.curltime, %struct.Curl_tree, %struct.Curl_llist, [15 x %struct.time_node], ptr, ptr, i64, i64, i64, i64, [32 x i8], i64, ptr, ptr, ptr, %struct.urlpieces, ptr, ptr, ptr, ptr, ptr, i64, %struct.dynbuf, %struct.Curl_llist, [2 x %struct.curl_header], ptr, i32, ptr, ptr, %struct.store_netrc, %struct.dynamically_allocated_data, i8, i8, i8, i8, i32 }
%struct.digestdata = type { ptr, ptr, ptr, ptr, ptr, ptr, i32, i8, i8 }
%struct.auth = type { i64, i64, i64, i8 }
%struct.Curl_async = type { ptr, ptr, ptr, ptr, i32, i32, i8 }
%struct.Curl_tree = type { ptr, ptr, ptr, ptr, %struct.curltime, ptr }
%struct.time_node = type { %struct.Curl_llist_node, %struct.curltime, i32 }
%struct.urlpieces = type { ptr, ptr, ptr, ptr, ptr, ptr, ptr, ptr }
%struct.dynbuf = type { ptr, i64, i64, i64 }
%struct.curl_header = type { ptr, ptr, i64, i64, i32, ptr }
%struct.store_netrc = type { %struct.dynbuf, ptr, i8 }
%struct.dynamically_allocated_data = type { ptr, ptr, ptr, ptr, ptr, ptr, ptr, ptr, ptr, ptr, ptr, ptr, ptr, ptr }
%struct.PureInfo = type { i32, i32, i32, i64, i64, i64, i64, i64, i64, i64, ptr, ptr, i64, i32, %struct.ip_quadruple, i32, ptr, i32, %struct.curl_certinfo, i32, i8 }
%struct.ip_quadruple = type { [46 x i8], [46 x i8], i32, i32 }
%struct.curl_certinfo = type { i32, ptr }
%struct.curl_tlssessioninfo = type { i32, ptr }
%struct.Curl_share = type { i32, i32, i32, ptr, ptr, ptr, %struct.cpool, %struct.Curl_hash, ptr, %struct.PslCache, ptr, ptr }
%struct.PslCache = type { ptr, i64, i8 }
%struct.Curl_multi = type { i32, i32, i32, %struct.Curl_llist, %struct.Curl_llist, %struct.Curl_llist, %struct.Curl_llist, i64, ptr, ptr, ptr, ptr, %struct.Curl_hash, ptr, %struct.PslCache, ptr, ptr, i64, ptr, i64, ptr, i64, %struct.Curl_hash, %struct.Curl_hash, %struct.cpool, i64, i64, ptr, ptr, i64, %struct.curltime, [2 x i32], i32, i32, i8, i8 }

; Function Attrs: nounwind uwtable
define internal ptr @cpool_get_instance(ptr noundef %0) #0 {
  %2 = alloca ptr, align 8
  %3 = alloca ptr, align 8
  store ptr %0, ptr %3, align 8, !tbaa !99
  %4 = load ptr, ptr %3, align 8, !tbaa !99
  %5 = icmp ne ptr %4, null
  br i1 %5, label %6, label %47

6:                                                ; preds = %1
  %7 = load ptr, ptr %3, align 8, !tbaa !99
  %8 = getelementptr inbounds nuw %struct.Curl_easy, ptr %7, i32 0, i32 13
  %9 = load ptr, ptr %8, align 8, !tbaa !88
  %10 = icmp ne ptr %9, null
  br i1 %10, label %11, label %24

11:                                               ; preds = %6
  %12 = load ptr, ptr %3, align 8, !tbaa !99
  %13 = getelementptr inbounds nuw %struct.Curl_easy, ptr %12, i32 0, i32 13
  %14 = load ptr, ptr %13, align 8, !tbaa !88
  %15 = getelementptr inbounds nuw %struct.Curl_share, ptr %14, i32 0, i32 1
  %16 = load i32, ptr %15, align 4, !tbaa !90
  %17 = and i32 %16, 32
  %18 = icmp ne i32 %17, 0
  br i1 %18, label %19, label %24

19:                                               ; preds = %11
  %20 = load ptr, ptr %3, align 8, !tbaa !99
  %21 = getelementptr inbounds nuw %struct.Curl_easy, ptr %20, i32 0, i32 13
  %22 = load ptr, ptr %21, align 8, !tbaa !88
  %23 = getelementptr inbounds nuw %struct.Curl_share, ptr %22, i32 0, i32 6
  store ptr %23, ptr %2, align 8
  br label %48

24:                                               ; preds = %11, %6
  %25 = load ptr, ptr %3, align 8, !tbaa !99
  %26 = getelementptr inbounds nuw %struct.Curl_easy, ptr %25, i32 0, i32 12
  %27 = load ptr, ptr %26, align 8, !tbaa !105
  %28 = icmp ne ptr %27, null
  br i1 %28, label %29, label %34

29:                                               ; preds = %24
  %30 = load ptr, ptr %3, align 8, !tbaa !99
  %31 = getelementptr inbounds nuw %struct.Curl_easy, ptr %30, i32 0, i32 12
  %32 = load ptr, ptr %31, align 8, !tbaa !105
  %33 = getelementptr inbounds nuw %struct.Curl_multi, ptr %32, i32 0, i32 24
  store ptr %33, ptr %2, align 8
  br label %48

34:                                               ; preds = %24
  %35 = load ptr, ptr %3, align 8, !tbaa !99
  %36 = getelementptr inbounds nuw %struct.Curl_easy, ptr %35, i32 0, i32 11
  %37 = load ptr, ptr %36, align 8, !tbaa !24
  %38 = icmp ne ptr %37, null
  br i1 %38, label %39, label %44

39:                                               ; preds = %34
  %40 = load ptr, ptr %3, align 8, !tbaa !99
  %41 = getelementptr inbounds nuw %struct.Curl_easy, ptr %40, i32 0, i32 11
  %42 = load ptr, ptr %41, align 8, !tbaa !24
  %43 = getelementptr inbounds nuw %struct.Curl_multi, ptr %42, i32 0, i32 24
  store ptr %43, ptr %2, align 8
  br label %48

44:                                               ; preds = %34
  br label %45

45:                                               ; preds = %44
  br label %46

46:                                               ; preds = %45
  br label %47

47:                                               ; preds = %46, %1
  store ptr null, ptr %2, align 8
  br label %48

48:                                               ; preds = %47, %39, %29, %19
  %49 = load ptr, ptr %2, align 8
  ret ptr %49
}

; Function Attrs: nounwind uwtable
define hidden void @Curl_cpool_do_locked(ptr noundef %0, ptr noundef %1, ptr noundef %2, ptr noundef %3) #0 {
  %5 = alloca ptr, align 8
  %6 = alloca ptr, align 8
  %7 = alloca ptr, align 8
  %8 = alloca ptr, align 8
  %9 = alloca ptr, align 8
  store ptr %0, ptr %5, align 8, !tbaa !99
  store ptr %1, ptr %6, align 8, !tbaa !95
  store ptr %2, ptr %7, align 8, !tbaa !8
  store ptr %3, ptr %8, align 8, !tbaa !8
  call void @llvm.lifetime.start.p0(i64 8, ptr %9) #7
  %10 = load ptr, ptr %5, align 8, !tbaa !99
  %11 = call ptr @cpool_get_instance(ptr noundef %10)
  store ptr %11, ptr %9, align 8, !tbaa !3
  %12 = load ptr, ptr %9, align 8, !tbaa !3
  %13 = icmp ne ptr %12, null
  br i1 %13, label %14, label %85

14:                                               ; preds = %4
  br label %15

15:                                               ; preds = %14
  %16 = load ptr, ptr %9, align 8, !tbaa !3
  %17 = icmp ne ptr %16, null
  br i1 %17, label %18, label %45

18:                                               ; preds = %15
  %19 = load ptr, ptr %9, align 8, !tbaa !3
  %20 = getelementptr inbounds nuw %struct.cpool, ptr %19, i32 0, i32 8
  %21 = load ptr, ptr %20, align 8, !tbaa !87
  %22 = icmp ne ptr %21, null
  br i1 %22, label %23, label %36

23:                                               ; preds = %18
  %24 = load ptr, ptr %9, align 8, !tbaa !3
  %25 = getelementptr inbounds nuw %struct.cpool, ptr %24, i32 0, i32 8
  %26 = load ptr, ptr %25, align 8, !tbaa !87
  %27 = getelementptr inbounds nuw %struct.Curl_share, ptr %26, i32 0, i32 1
  %28 = load i32, ptr %27, align 4, !tbaa !90
  %29 = and i32 %28, 32
  %30 = icmp ne i32 %29, 0
  br i1 %30, label %31, label %36

31:                                               ; preds = %23
  %32 = load ptr, ptr %9, align 8, !tbaa !3
  %33 = getelementptr inbounds nuw %struct.cpool, ptr %32, i32 0, i32 6
  %34 = load ptr, ptr %33, align 8, !tbaa !15
  %35 = call i32 @Curl_share_lock(ptr noundef %34, i32 noundef 5, i32 noundef 2)
  br label %36

36:                                               ; preds = %31, %23, %18
  br label %37

37:                                               ; preds = %36
  br label %38

38:                                               ; preds = %37
  br label %39

39:                                               ; preds = %38
  %40 = load ptr, ptr %9, align 8, !tbaa !3
  %41 = getelementptr inbounds nuw %struct.cpool, ptr %40, i32 0, i32 10
  %42 = load i8, ptr %41, align 8
  %43 = and i8 %42, -2
  %44 = or i8 %43, 1
  store i8 %44, ptr %41, align 8
  br label %45

45:                                               ; preds = %39, %15
  br label %46

46:                                               ; preds = %45
  br label %47

47:                                               ; preds = %46
  %48 = load ptr, ptr %7, align 8, !tbaa !8
  %49 = load ptr, ptr %6, align 8, !tbaa !95
  %50 = load ptr, ptr %5, align 8, !tbaa !99
  %51 = load ptr, ptr %8, align 8, !tbaa !8
  call void %48(ptr noundef %49, ptr noundef %50, ptr noundef %51)
  br label %52

52:                                               ; preds = %47
  %53 = load ptr, ptr %9, align 8, !tbaa !3
  %54 = icmp ne ptr %53, null
  br i1 %54, label %55, label %82

55:                                               ; preds = %52
  br label %56

56:                                               ; preds = %55
  br label %57

57:                                               ; preds = %56
  br label %58

58:                                               ; preds = %57
  %59 = load ptr, ptr %9, align 8, !tbaa !3
  %60 = getelementptr inbounds nuw %struct.cpool, ptr %59, i32 0, i32 10
  %61 = load i8, ptr %60, align 8
  %62 = and i8 %61, -2
  %63 = or i8 %62, 0
  store i8 %63, ptr %60, align 8
  %64 = load ptr, ptr %9, align 8, !tbaa !3
  %65 = getelementptr inbounds nuw %struct.cpool, ptr %64, i32 0, i32 8
  %66 = load ptr, ptr %65, align 8, !tbaa !87
  %67 = icmp ne ptr %66, null
  br i1 %67, label %68, label %81

68:                                               ; preds = %58
  %69 = load ptr, ptr %9, align 8, !tbaa !3
  %70 = getelementptr inbounds nuw %struct.cpool, ptr %69, i32 0, i32 8
  %71 = load ptr, ptr %70, align 8, !tbaa !87
  %72 = getelementptr inbounds nuw %struct.Curl_share, ptr %71, i32 0, i32 1
  %73 = load i32, ptr %72, align 4, !tbaa !90
  %74 = and i32 %73, 32
  %75 = icmp ne i32 %74, 0
  br i1 %75, label %76, label %81

76:                                               ; preds = %68
  %77 = load ptr, ptr %9, align 8, !tbaa !3
  %78 = getelementptr inbounds nuw %struct.cpool, ptr %77, i32 0, i32 6
  %79 = load ptr, ptr %78, align 8, !tbaa !15
  %80 = call i32 @Curl_share_unlock(ptr noundef %79, i32 noundef 5)
  br label %81

81:                                               ; preds = %76, %68, %58
  br label %82

82:                                               ; preds = %81, %52
  br label %83

83:                                               ; preds = %82
  br label %84

84:                                               ; preds = %83
  br label %90

85:                                               ; preds = %4
  %86 = load ptr, ptr %7, align 8, !tbaa !8
  %87 = load ptr, ptr %6, align 8, !tbaa !95
  %88 = load ptr, ptr %5, align 8, !tbaa !99
  %89 = load ptr, ptr %8, align 8, !tbaa !8
  call void %86(ptr noundef %87, ptr noundef %88, ptr noundef %89)
  br label %90

90:                                               ; preds = %85, %84
  call void @llvm.lifetime.end.p0(i64 8, ptr %9) #7
  ret void
}