; Function Attrs: nounwind uwtable
define hidden void @Curl_cpool_do_locked(ptr noundef %0, ptr noundef %1, ptr noundef readonly captures(none) %2, ptr noundef %3) local_unnamed_addr #0 {
  %.not.i = icmp eq ptr %0, null
  br i1 %.not.i, label %cpool_get_instance.exit, label %5

5:                                                ; preds = %4
  %6 = getelementptr inbounds nuw i8, ptr %0, i64 224
  %7 = load ptr, ptr %6, align 8, !tbaa !82
  %.not13.i = icmp eq ptr %7, null
  br i1 %.not13.i, label %14, label %8

8:                                                ; preds = %5
  %9 = getelementptr inbounds nuw i8, ptr %7, i64 4
  %10 = load i32, ptr %9, align 4, !tbaa !89
  %11 = and i32 %10, 32
  %.not14.i = icmp eq i32 %11, 0
  br i1 %.not14.i, label %14, label %12

12:                                               ; preds = %8
  %13 = getelementptr inbounds nuw i8, ptr %7, i64 40
  br label %23

14:                                               ; preds = %8, %5
  %15 = getelementptr inbounds nuw i8, ptr %0, i64 216
  %16 = load ptr, ptr %15, align 8, !tbaa !123
  %.not15.i = icmp eq ptr %16, null
  br i1 %.not15.i, label %19, label %17

17:                                               ; preds = %14
  %18 = getelementptr inbounds nuw i8, ptr %16, i64 416
  br label %23

19:                                               ; preds = %14
  %20 = getelementptr inbounds nuw i8, ptr %0, i64 208
  %21 = load ptr, ptr %20, align 8, !tbaa !20
  %.not16.i = icmp eq ptr %21, null
  %22 = getelementptr inbounds nuw i8, ptr %21, i64 416
  br i1 %.not16.i, label %cpool_get_instance.exit, label %23

23:                                               ; preds = %12, %17, %19
  %.0.i.ph = phi ptr [ %22, %19 ], [ %18, %17 ], [ %13, %12 ]
  %24 = getelementptr inbounds nuw i8, ptr %.0.i.ph, i64 136
  %25 = load ptr, ptr %24, align 8, !tbaa !81
  %.not22 = icmp eq ptr %25, null
  br i1 %.not22, label %34, label %26

26:                                               ; preds = %23
  %27 = getelementptr inbounds nuw i8, ptr %25, i64 4
  %28 = load i32, ptr %27, align 4, !tbaa !89
  %29 = and i32 %28, 32
  %.not23 = icmp eq i32 %29, 0
  br i1 %.not23, label %34, label %30

30:                                               ; preds = %26
  %31 = getelementptr inbounds nuw i8, ptr %.0.i.ph, i64 120
  %32 = load ptr, ptr %31, align 8, !tbaa !3
  %33 = tail call i32 @Curl_share_lock(ptr noundef %32, i32 noundef 5, i32 noundef 2) #8
  br label %34

34:                                               ; preds = %23, %26, %30
  %35 = getelementptr inbounds nuw i8, ptr %.0.i.ph, i64 152
  %36 = load i8, ptr %35, align 8
  %37 = or i8 %36, 1
  store i8 %37, ptr %35, align 8
  tail call void %2(ptr noundef %1, ptr noundef nonnull %0, ptr noundef %3) #8
  %38 = load i8, ptr %35, align 8
  %39 = and i8 %38, -2
  store i8 %39, ptr %35, align 8
  %40 = load ptr, ptr %24, align 8, !tbaa !81
  %.not24 = icmp eq ptr %40, null
  br i1 %.not24, label %49, label %41

41:                                               ; preds = %34
  %42 = getelementptr inbounds nuw i8, ptr %40, i64 4
  %43 = load i32, ptr %42, align 4, !tbaa !89
  %44 = and i32 %43, 32
  %.not25 = icmp eq i32 %44, 0
  br i1 %.not25, label %49, label %45

45:                                               ; preds = %41
  %46 = getelementptr inbounds nuw i8, ptr %.0.i.ph, i64 120
  %47 = load ptr, ptr %46, align 8, !tbaa !3
  %48 = tail call i32 @Curl_share_unlock(ptr noundef %47, i32 noundef 5) #8
  br label %49

cpool_get_instance.exit:                          ; preds = %19, %4
  tail call void %2(ptr noundef %1, ptr noundef %0, ptr noundef %3) #8
  br label %49

49:                                               ; preds = %45, %41, %34, %cpool_get_instance.exit
  ret void
}